; Function Attrs: nounwind uwtable
define void @Wlc_NtkMarkCone_rec(ptr noundef readonly captures(none) %0, ptr noundef captures(none) %1, ptr noundef captures(none) %2) local_unnamed_addr #3 {
  %4 = load i16, ptr %1, align 8
  %5 = and i16 %4, 128
  %.not = icmp eq i16 %5, 0
  br i1 %.not, label %6, label %.critedge

6:                                                ; preds = %3
  %7 = or disjoint i16 %4, 128
  store i16 %7, ptr %1, align 8
  %8 = and i16 %4, 61
  %narrow.i.not = icmp eq i16 %8, 1
  br i1 %narrow.i.not, label %13, label %.preheader

.preheader:                                       ; preds = %6
  %9 = getelementptr i8, ptr %1, i64 4
  %.val2024 = load i32, ptr %9, align 4
  %10 = icmp sgt i32 %.val2024, 0
  br i1 %10, label %.lr.ph, label %.critedge

.lr.ph:                                           ; preds = %.preheader
  %11 = getelementptr inbounds nuw i8, ptr %1, i64 16
  %12 = getelementptr i8, ptr %0, i64 640
  br label %48

13:                                               ; preds = %6
  %14 = and i16 %4, 3
  %.not23 = icmp eq i16 %14, 1
  br i1 %.not23, label %.critedge, label %15

15:                                               ; preds = %13
  %16 = getelementptr i8, ptr %1, i64 20
  %.val22 = load i32, ptr %16, align 4
  %17 = getelementptr inbounds nuw i8, ptr %2, i64 4
  %18 = load i32, ptr %17, align 4
  %19 = load i32, ptr %2, align 8
  %20 = icmp eq i32 %18, %19
  br i1 %20, label %21, label %.Vec_IntGrow.exit10_crit_edge.i

.Vec_IntGrow.exit10_crit_edge.i:                  ; preds = %15
  %.phi.trans.insert.i = getelementptr inbounds nuw i8, ptr %2, i64 8
  %.pre.i = load ptr, ptr %.phi.trans.insert.i, align 8
  br label %Vec_IntPush.exit

21:                                               ; preds = %15
  %22 = icmp slt i32 %18, 16
  br i1 %22, label %23, label %31

23:                                               ; preds = %21
  %24 = getelementptr inbounds nuw i8, ptr %2, i64 8
  %25 = load ptr, ptr %24, align 8
  %.not9.i.i = icmp eq ptr %25, null
  br i1 %.not9.i.i, label %28, label %26

26:                                               ; preds = %23
  %27 = tail call dereferenceable_or_null(64) ptr @realloc(ptr noundef nonnull %25, i64 noundef 64) #27
  br label %Vec_IntGrow.exit.i

28:                                               ; preds = %23
  %29 = tail call noalias dereferenceable_or_null(64) ptr @malloc(i64 noundef 64) #26
  br label %Vec_IntGrow.exit.i

Vec_IntGrow.exit.i:                               ; preds = %28, %26
  %30 = phi ptr [ %27, %26 ], [ %29, %28 ]
  store ptr %30, ptr %24, align 8
  store i32 16, ptr %2, align 8
  br label %Vec_IntPush.exit

31:                                               ; preds = %21
  %32 = shl nuw nsw i32 %18, 1
  %33 = getelementptr inbounds nuw i8, ptr %2, i64 8
  %34 = load ptr, ptr %33, align 8
  %.not9.i9.i = icmp eq ptr %34, null
  %35 = zext nneg i32 %32 to i64
  %36 = shl nuw nsw i64 %35, 2
  br i1 %.not9.i9.i, label %39, label %37

37:                                               ; preds = %31
  %38 = tail call ptr @realloc(ptr noundef nonnull %34, i64 noundef %36) #27
  br label %41

39:                                               ; preds = %31
  %40 = tail call noalias ptr @malloc(i64 noundef %36) #26
  br label %41

41:                                               ; preds = %39, %37
  %42 = phi ptr [ %38, %37 ], [ %40, %39 ]
  store ptr %42, ptr %33, align 8
  store i32 %32, ptr %2, align 8
  br label %Vec_IntPush.exit

Vec_IntPush.exit:                                 ; preds = %.Vec_IntGrow.exit10_crit_edge.i, %Vec_IntGrow.exit.i, %41
  %43 = phi ptr [ %.pre.i, %.Vec_IntGrow.exit10_crit_edge.i ], [ %42, %41 ], [ %30, %Vec_IntGrow.exit.i ]
  %44 = load i32, ptr %17, align 4
  %45 = add nsw i32 %44, 1
  store i32 %45, ptr %17, align 4
  %46 = sext i32 %44 to i64
  %47 = getelementptr inbounds i32, ptr %43, i64 %46
  store i32 %.val22, ptr %47, align 4
  br label %.critedge

48:                                               ; preds = %.lr.ph, %60
  %.val2028 = phi i32 [ %.val2024, %.lr.ph ], [ %.val20, %60 ]
  %indvars.iv = phi i64 [ 0, %.lr.ph ], [ %indvars.iv.next, %60 ]
  %49 = icmp ugt i32 %.val2028, 2
  br i1 %49, label %Wlc_ObjHasArray.exit.thread.i.i, label %50

50:                                               ; preds = %48
  %51 = load i16, ptr %1, align 8
  %52 = and i16 %51, 63
  switch i16 %52, label %Wlc_ObjFaninId.exit [
    i16 6, label %Wlc_ObjHasArray.exit.thread.i.i
    i16 22, label %Wlc_ObjHasArray.exit.thread.i.i
  ]

Wlc_ObjHasArray.exit.thread.i.i:                  ; preds = %50, %50, %48
  %53 = load ptr, ptr %11, align 8
  br label %Wlc_ObjFaninId.exit

Wlc_ObjFaninId.exit:                              ; preds = %50, %Wlc_ObjHasArray.exit.thread.i.i
  %54 = phi ptr [ %53, %Wlc_ObjHasArray.exit.thread.i.i ], [ %11, %50 ]
  %55 = getelementptr inbounds nuw i32, ptr %54, i64 %indvars.iv
  %56 = load i32, ptr %55, align 4
  %.not17 = icmp eq i32 %56, 0
  br i1 %.not17, label %60, label %57

57:                                               ; preds = %Wlc_ObjFaninId.exit
  %.val = load ptr, ptr %12, align 8
  %58 = sext i32 %56 to i64
  %59 = getelementptr inbounds %struct.Wlc_Obj_t_, ptr %.val, i64 %58
  tail call void @Wlc_NtkMarkCone_rec(ptr noundef %0, ptr noundef nonnull %59, ptr noundef %2)
  %.val20.pre = load i32, ptr %9, align 4
  br label %60

60:                                               ; preds = %Wlc_ObjFaninId.exit, %57
  %.val20 = phi i32 [ %.val2028, %Wlc_ObjFaninId.exit ], [ %.val20.pre, %57 ]
  %indvars.iv.next = add nuw nsw i64 %indvars.iv, 1
  %61 = sext i32 %.val20 to i64
  %62 = icmp slt i64 %indvars.iv.next, %61
  br i1 %62, label %48, label %.critedge, !llvm.loop !73

.critedge:                                        ; preds = %60, %.preheader, %13, %Vec_IntPush.exit, %3
  ret void
}